	.file	"x86_64-vla-pointer.c"
	.text
.Ltext0:
	.globl	foo
	.type	foo, @function
foo:
.LFB0:
	.file 1 "gdb.arch/x86_64-vla-pointer.c"
	# gdb.arch/x86_64-vla-pointer.c:22
	.loc 1 22 0
	.cfi_startproc
# BLOCK 2 seq:0
# PRED: ENTRY (FALLTHRU)
	pushq	%rbp
	.cfi_def_cfa_offset 16
	.cfi_offset 6, -16
	movq	%rsp, %rbp
	.cfi_def_cfa_register 6
	pushq	%rbx
	subq	$56, %rsp
	.cfi_offset 3, -24
	movl	%edi, -52(%rbp)
	# gdb.arch/x86_64-vla-pointer.c:22
	.loc 1 22 0
	movq	%rsp, %rax
	movq	%rax, %rsi
	# gdb.arch/x86_64-vla-pointer.c:23
	.loc 1 23 0
	movl	-52(%rbp), %eax
	movslq	%eax, %rdx
	subq	$1, %rdx
	movq	%rdx, -32(%rbp)
	movslq	%eax, %rdx
	movq	%rdx, %r8
	movl	$0, %r9d
	# gdb.arch/x86_64-vla-pointer.c:24
	.loc 1 24 0
	movslq	%eax, %rdx
	movq	%rdx, %rcx
	movl	$0, %ebx
	cltq
	movl	$16, %edx
	subq	$1, %rdx
	addq	%rdx, %rax
	movl	$16, %ebx
	movl	$0, %edx
	divq	%rbx
	imulq	$16, %rax, %rax
	subq	%rax, %rsp
	movq	%rsp, %rax
	addq	$0, %rax
	movq	%rax, -40(%rbp)
	# gdb.arch/x86_64-vla-pointer.c:27
	.loc 1 27 0
	movl	$0, -20(%rbp)
# SUCC: 4 [100.0%] 
	jmp	.L2
# BLOCK 3 seq:1
# PRED: 4
.L3:
	# gdb.arch/x86_64-vla-pointer.c:28
	.loc 1 28 0 discriminator 3
	movl	-20(%rbp), %eax
	movl	%eax, %ecx
	movq	-40(%rbp), %rdx
	movl	-20(%rbp), %eax
	cltq
	movb	%cl, (%rdx,%rax)
# SUCC: 4 (FALLTHRU,DFS_BACK)
	# gdb.arch/x86_64-vla-pointer.c:27
	.loc 1 27 0 discriminator 3
	addl	$1, -20(%rbp)
# BLOCK 4 seq:2
# PRED: 3 (FALLTHRU,DFS_BACK) 2 [100.0%] 
.L2:
	# gdb.arch/x86_64-vla-pointer.c:27
	.loc 1 27 0 is_stmt 0 discriminator 1
	movl	-20(%rbp), %eax
	cmpl	-52(%rbp), %eax
# SUCC: 3 5 (FALLTHRU)
	jl	.L3
# BLOCK 5 seq:3
# PRED: 4 (FALLTHRU)
	# gdb.arch/x86_64-vla-pointer.c:30
	.loc 1 30 0 is_stmt 1
	movq	-40(%rbp), %rax
	movb	$0, (%rax)
	movq	%rsi, %rsp
	# gdb.arch/x86_64-vla-pointer.c:31
	.loc 1 31 0
	nop
	movq	-8(%rbp), %rbx
	leave
	.cfi_def_cfa 7, 8
# SUCC: EXIT [100.0%] 
	ret
	.cfi_endproc
.LFE0:
	.size	foo, .-foo
.Letext0:
	.section	.note.GNU-stack,"",@progbits
